; Function Attrs: mustprogress nounwind uwtable
define hidden void @_ZN5zxing11UnicomBlockD2Ev(ptr noundef nonnull align 8 captures(none) dereferenceable(160) initializes((0, 8)) %0) unnamed_addr #1 align 2 personality ptr @__gxx_personality_v0 {
  store ptr getelementptr inbounds nuw inrange(-16, 16) (i8, ptr @_ZTVN5zxing11UnicomBlockE, i64 16), ptr %0, align 8, !tbaa !8
  %2 = getelementptr inbounds nuw i8, ptr %0, i64 152
  %3 = load ptr, ptr %2, align 8, !tbaa !27
  %.not.i = icmp eq ptr %3, null
  br i1 %.not.i, label %_ZN5zxing3RefINS_9BitMatrixEED2Ev.exit, label %4

4:                                                ; preds = %1
  %5 = getelementptr inbounds nuw i8, ptr %3, i64 8
  %6 = load i32, ptr %5, align 8, !tbaa !3
  %7 = add i32 %6, -1
  store i32 %7, ptr %5, align 8, !tbaa !3
  %8 = icmp eq i32 %7, 0
  br i1 %8, label %9, label %_ZN5zxing3RefINS_9BitMatrixEED2Ev.exit

9:                                                ; preds = %4
  store i32 -559026175, ptr %5, align 8, !tbaa !3
  %10 = load ptr, ptr %3, align 8, !tbaa !8
  %11 = getelementptr inbounds nuw i8, ptr %10, i64 8
  %12 = load ptr, ptr %11, align 8
  tail call void %12(ptr noundef nonnull align 8 dereferenceable(12) %3) #9
  br label %_ZN5zxing3RefINS_9BitMatrixEED2Ev.exit

_ZN5zxing3RefINS_9BitMatrixEED2Ev.exit:           ; preds = %1, %4, %9
  %13 = getelementptr inbounds nuw i8, ptr %0, i64 128
  %14 = load ptr, ptr %13, align 8, !tbaa !28
  %.not.i.i.i = icmp eq ptr %14, null
  br i1 %.not.i.i.i, label %_ZNSt6vectorIiSaIiEED2Ev.exit, label %15

15:                                               ; preds = %_ZN5zxing3RefINS_9BitMatrixEED2Ev.exit
  tail call void @_ZdlPv(ptr noundef nonnull %14) #10
  br label %_ZNSt6vectorIiSaIiEED2Ev.exit

_ZNSt6vectorIiSaIiEED2Ev.exit:                    ; preds = %_ZN5zxing3RefINS_9BitMatrixEED2Ev.exit, %15
  %16 = getelementptr inbounds nuw i8, ptr %0, i64 104
  %17 = load ptr, ptr %16, align 8, !tbaa !28
  %.not.i.i.i1 = icmp eq ptr %17, null
  br i1 %.not.i.i.i1, label %_ZNSt6vectorIiSaIiEED2Ev.exit2, label %18

18:                                               ; preds = %_ZNSt6vectorIiSaIiEED2Ev.exit
  tail call void @_ZdlPv(ptr noundef nonnull %17) #10
  br label %_ZNSt6vectorIiSaIiEED2Ev.exit2

_ZNSt6vectorIiSaIiEED2Ev.exit2:                   ; preds = %_ZNSt6vectorIiSaIiEED2Ev.exit, %18
  %19 = getelementptr inbounds nuw i8, ptr %0, i64 80
  %20 = load ptr, ptr %19, align 8, !tbaa !28
  %.not.i.i.i3 = icmp eq ptr %20, null
  br i1 %.not.i.i.i3, label %_ZNSt6vectorIiSaIiEED2Ev.exit4, label %21

21:                                               ; preds = %_ZNSt6vectorIiSaIiEED2Ev.exit2
  tail call void @_ZdlPv(ptr noundef nonnull %20) #10
  br label %_ZNSt6vectorIiSaIiEED2Ev.exit4

_ZNSt6vectorIiSaIiEED2Ev.exit4:                   ; preds = %_ZNSt6vectorIiSaIiEED2Ev.exit2, %21
  %22 = getelementptr inbounds nuw i8, ptr %0, i64 56
  %23 = load ptr, ptr %22, align 8, !tbaa !29
  %.not.i.i.i5 = icmp eq ptr %23, null
  br i1 %.not.i.i.i5, label %_ZNSt6vectorIjSaIjEED2Ev.exit, label %24

24:                                               ; preds = %_ZNSt6vectorIiSaIiEED2Ev.exit4
  tail call void @_ZdlPv(ptr noundef nonnull %23) #10
  br label %_ZNSt6vectorIjSaIjEED2Ev.exit

_ZNSt6vectorIjSaIjEED2Ev.exit:                    ; preds = %_ZNSt6vectorIiSaIiEED2Ev.exit4, %24
  %25 = getelementptr inbounds nuw i8, ptr %0, i64 32
  %26 = load ptr, ptr %25, align 8, !tbaa !29
  %.not.i.i.i6 = icmp eq ptr %26, null
  br i1 %.not.i.i.i6, label %_ZNSt6vectorIjSaIjEED2Ev.exit7, label %27

27:                                               ; preds = %_ZNSt6vectorIjSaIjEED2Ev.exit
  tail call void @_ZdlPv(ptr noundef nonnull %26) #10
  br label %_ZNSt6vectorIjSaIjEED2Ev.exit7

_ZNSt6vectorIjSaIjEED2Ev.exit7:                   ; preds = %_ZNSt6vectorIjSaIjEED2Ev.exit, %27
  ret void
}